; Function Attrs: mustprogress nounwind uwtable
define void @_ZN4LIEF2PE12ResourceDataD2Ev(ptr noundef nonnull align 8 dereferenceable(116) %0) unnamed_addr #0 align 2 personality ptr @__gxx_personality_v0 {
  store ptr getelementptr inbounds ({ [8 x ptr] }, ptr @_ZTVN4LIEF2PE12ResourceDataE, i64 0, i32 0, i64 2), ptr %0, align 8
  %2 = getelementptr inbounds i8, ptr %0, i64 80
  %3 = load ptr, ptr %2, align 8
  %.not.i.i.i = icmp eq ptr %3, null
  br i1 %.not.i.i.i, label %_ZNSt6vectorIhSaIhEED2Ev.exit, label %4

4:                                                ; preds = %1
  tail call void @_ZdlPv(ptr noundef nonnull %3) #12
  br label %_ZNSt6vectorIhSaIhEED2Ev.exit

_ZNSt6vectorIhSaIhEED2Ev.exit:                    ; preds = %1, %4
  tail call void @_ZN4LIEF2PE12ResourceNodeD2Ev(ptr noundef nonnull align 8 dereferenceable(76) %0) #13
  ret void
}